target datalayout = "e-m:e-p270:32:32-p271:32:32-p272:64:64-i64:64-i128:128-f80:128-n8:16:32:64-S128"
target triple = "x86_64-pc-linux-gnu"

%struct.Vec_Int_t_ = type { i32, i32, ptr }

@.str = private unnamed_addr constant [3 x i8] c"%s\00", align 1
@.str.1 = private unnamed_addr constant [1 x i8] zeroinitializer, align 1
@.str.2 = private unnamed_addr constant [3 x i8] c", \00", align 1

; Function Attrs: inlinehint nounwind uwtable
define internal i32 @Vec_IntEntry(ptr noundef %0, i32 noundef %1) #2 {
  %3 = alloca ptr, align 8
  %4 = alloca i32, align 4
  store ptr %0, ptr %3, align 8, !tbaa !10
  store i32 %1, ptr %4, align 4, !tbaa !12
  %5 = load ptr, ptr %3, align 8, !tbaa !10
  %6 = getelementptr inbounds nuw %struct.Vec_Int_t_, ptr %5, i32 0, i32 2
  %7 = load ptr, ptr %6, align 8, !tbaa !16
  %8 = load i32, ptr %4, align 4, !tbaa !12
  %9 = sext i32 %8 to i64
  %10 = getelementptr inbounds i32, ptr %7, i64 %9
  %11 = load i32, ptr %10, align 4, !tbaa !12
  ret i32 %11
}

; Function Attrs: nounwind uwtable
define void @Psr_ManWriteVerilogArray(ptr noundef %0, ptr noundef %1, ptr noundef %2, i32 noundef %3, i32 noundef %4, i32 noundef %5) #0 {
  %7 = alloca ptr, align 8
  %8 = alloca ptr, align 8
  %9 = alloca ptr, align 8
  %10 = alloca i32, align 4
  %11 = alloca i32, align 4
  %12 = alloca i32, align 4
  %13 = alloca i32, align 4
  %14 = alloca i32, align 4
  store ptr %0, ptr %7, align 8, !tbaa !3
  store ptr %1, ptr %8, align 8, !tbaa !8
  store ptr %2, ptr %9, align 8, !tbaa !10
  store i32 %3, ptr %10, align 4, !tbaa !12
  store i32 %4, ptr %11, align 4, !tbaa !12
  store i32 %5, ptr %12, align 4, !tbaa !12
  call void @llvm.lifetime.start.p0(i64 4, ptr %13) #9
  call void @llvm.lifetime.start.p0(i64 4, ptr %14) #9
  %15 = load i32, ptr %10, align 4, !tbaa !12
  store i32 %15, ptr %13, align 4, !tbaa !12
  br label %16

16:                                               ; preds = %45, %6
  %17 = load i32, ptr %13, align 4, !tbaa !12
  %18 = load i32, ptr %11, align 4, !tbaa !12
  %19 = icmp slt i32 %17, %18
  br i1 %19, label %20, label %24

20:                                               ; preds = %16
  %21 = load ptr, ptr %9, align 8, !tbaa !10
  %22 = load i32, ptr %13, align 4, !tbaa !12
  %23 = call i32 @Vec_IntEntry(ptr noundef %21, i32 noundef %22)
  store i32 %23, ptr %14, align 4, !tbaa !12
  br label %24

24:                                               ; preds = %20, %16
  %25 = phi i1 [ false, %16 ], [ true, %20 ]
  br i1 %25, label %26, label %48

26:                                               ; preds = %24
  %27 = load i32, ptr %12, align 4, !tbaa !12
  %28 = icmp ne i32 %27, 0
  br i1 %28, label %29, label %34

29:                                               ; preds = %26
  %30 = load i32, ptr %13, align 4, !tbaa !12
  %31 = and i32 %30, 1
  %32 = icmp ne i32 %31, 0
  br i1 %32, label %34, label %33

33:                                               ; preds = %29
  br label %45

34:                                               ; preds = %29, %26
  %35 = load ptr, ptr %7, align 8, !tbaa !3
  %36 = load ptr, ptr %8, align 8, !tbaa !8
  %37 = load i32, ptr %14, align 4, !tbaa !12
  call void @Psr_ManWriteVerilogSignal(ptr noundef %35, ptr noundef %36, i32 noundef %37)
  %38 = load ptr, ptr %7, align 8, !tbaa !3
  %39 = load i32, ptr %13, align 4, !tbaa !12
  %40 = load i32, ptr %11, align 4, !tbaa !12
  %41 = sub nsw i32 %40, 1
  %42 = icmp eq i32 %39, %41
  %43 = select i1 %42, ptr @.str.1, ptr @.str.2
  %44 = call i32 (ptr, ptr, ...) @fprintf(ptr noundef %38, ptr noundef @.str, ptr noundef %43) #9
  br label %45

45:                                               ; preds = %34, %33
  %46 = load i32, ptr %13, align 4, !tbaa !12
  %47 = add nsw i32 %46, 1
  store i32 %47, ptr %13, align 4, !tbaa !12
  br label %16, !llvm.loop !14

48:                                               ; preds = %24
  call void @llvm.lifetime.end.p0(i64 4, ptr %14) #9
  call void @llvm.lifetime.end.p0(i64 4, ptr %13) #9
  ret void
}