; Function Attrs: nounwind uwtable
define void @Psr_ManWriteVerilogArray(ptr noundef captures(none) %0, ptr noundef readonly captures(none) %1, ptr noundef readonly captures(none) %2, i32 noundef %3, i32 noundef %4, i32 noundef %5) local_unnamed_addr #0 {
  %7 = icmp slt i32 %3, %4
  br i1 %7, label %.lr.ph, label %.critedge

.lr.ph:                                           ; preds = %6
  %.not.not = icmp eq i32 %5, 0
  %8 = getelementptr i8, ptr %2, i64 8
  %9 = add nsw i32 %4, -1
  %10 = sext i32 %3 to i64
  %sext20 = sext i32 %9 to i64
  br i1 %.not.not, label %.lr.ph.split.us, label %.lr.ph.split

.lr.ph.split.us:                                  ; preds = %.lr.ph, %.lr.ph.split.us
  %indvars.iv18 = phi i64 [ %indvars.iv.next19, %.lr.ph.split.us ], [ %10, %.lr.ph ]
  %.val.us = load ptr, ptr %8, align 8, !tbaa !3
  %11 = getelementptr inbounds i32, ptr %.val.us, i64 %indvars.iv18
  %12 = load i32, ptr %11, align 4, !tbaa !10
  tail call fastcc void @Psr_ManWriteVerilogSignal(ptr noundef %0, ptr noundef %1, i32 noundef %12)
  %13 = icmp eq i64 %indvars.iv18, %sext20
  %14 = select i1 %13, ptr @.str.1, ptr @.str.2
  %fputs.us = tail call i32 @fputs(ptr nonnull %14, ptr %0)
  %indvars.iv.next19 = add nsw i64 %indvars.iv18, 1
  %lftr.wideiv22 = trunc i64 %indvars.iv.next19 to i32
  %exitcond23.not = icmp eq i32 %4, %lftr.wideiv22
  br i1 %exitcond23.not, label %.critedge, label %.lr.ph.split.us, !llvm.loop !11

.lr.ph.split:                                     ; preds = %.lr.ph, %21
  %indvars.iv = phi i64 [ %indvars.iv.next, %21 ], [ %10, %.lr.ph ]
  %15 = and i64 %indvars.iv, 1
  %.not14 = icmp eq i64 %15, 0
  br i1 %.not14, label %21, label %16

16:                                               ; preds = %.lr.ph.split
  %.val = load ptr, ptr %8, align 8, !tbaa !3
  %17 = getelementptr inbounds i32, ptr %.val, i64 %indvars.iv
  %18 = load i32, ptr %17, align 4, !tbaa !10
  tail call fastcc void @Psr_ManWriteVerilogSignal(ptr noundef %0, ptr noundef %1, i32 noundef %18)
  %19 = icmp eq i64 %indvars.iv, %sext20
  %20 = select i1 %19, ptr @.str.1, ptr @.str.2
  %fputs = tail call i32 @fputs(ptr nonnull %20, ptr %0)
  br label %21

21:                                               ; preds = %.lr.ph.split, %16
  %indvars.iv.next = add nsw i64 %indvars.iv, 1
  %lftr.wideiv = trunc i64 %indvars.iv.next to i32
  %exitcond.not = icmp eq i32 %4, %lftr.wideiv
  br i1 %exitcond.not, label %.critedge, label %.lr.ph.split, !llvm.loop !11

.critedge:                                        ; preds = %21, %.lr.ph.split.us, %6
  ret void
}